ccopy_reg
_reconstructor
p0
(csklearn.ensemble.gradient_boosting
GradientBoostingRegressor
p1
c__builtin__
object
p2
Ntp3
Rp4
(dp5
S'warm_start'
p6
I00
sS'loss'
p7
S'ls'
p8
sS'estimators_'
p9
cnumpy.core.multiarray
_reconstruct
p10
(cnumpy
ndarray
p11
(I0
tp12
S'b'
p13
tp14
Rp15
(I1
(I0
I0
tp16
cnumpy
dtype
p17
(S'O8'
p18
I0
I1
tp19
Rp20
(I3
S'|'
p21
NNNI-1
I-1
I63
tp22
bI00
(lp23
tp24
bsS'verbose'
p25
I0
sS'max_features'
p26
NsS'random_state'
p27
NsS'learning_rate'
p28
F0.1
sS'presort'
p29
S'auto'
p30
sS'min_samples_leaf'
p31
I1
sS'n_estimators'
p32
I100
sS'subsample'
p33
F1.0
sS'init'
p34
NsS'min_weight_fraction_leaf'
p35
F0.0
sS'max_leaf_nodes'
p36
NsS'min_samples_split'
p37
I2
sS'alpha'
p38
F0.9
sS'max_depth'
p39
I3
sb.